target datalayout = "e-m:e-p270:32:32-p271:32:32-p272:64:64-i64:64-i128:128-f80:128-n8:16:32:64-S128"
target triple = "x86_64-pc-linux-gnu"

%struct.view_t = type { ptr, ptr, %struct.lv_style_t, %struct.lv_style_t, %struct.anon }
%struct.lv_style_t = type { ptr, i32, i8 }
%struct.anon = type { ptr, %struct.anon.0, %struct.anon.4 }
%struct.anon.0 = type { ptr, %struct.anon.1, %struct.anon.2, %struct.anon.3 }
%struct.anon.1 = type { ptr, ptr, ptr }
%struct.anon.2 = type { ptr, ptr, ptr, ptr }
%struct.anon.3 = type { ptr, ptr, ptr, ptr, ptr, ptr, ptr, ptr, ptr, ptr, ptr, ptr, ptr, ptr, ptr, ptr, ptr }
%struct.anon.4 = type { ptr, ptr, ptr }

; Function Attrs: nounwind uwtable
define internal void @ctrl_pad_btn_event_attach(ptr noundef %0) #0 {
  %2 = alloca ptr, align 8
  store ptr %0, ptr %2, align 8, !tbaa !3
  %3 = load ptr, ptr %2, align 8, !tbaa !3
  %4 = getelementptr inbounds nuw %struct.view_t, ptr %3, i32 0, i32 4
  %5 = getelementptr inbounds nuw %struct.anon, ptr %4, i32 0, i32 2
  %6 = getelementptr inbounds nuw %struct.anon.4, ptr %5, i32 0, i32 1
  %7 = load ptr, ptr %6, align 8, !tbaa !25
  %8 = load ptr, ptr %2, align 8, !tbaa !3
  %9 = call ptr @lv_obj_add_event_cb(ptr noundef %7, ptr noundef @ctrl_pad_btn_add_event_handler, i32 noundef 10, ptr noundef %8)
  %10 = load ptr, ptr %2, align 8, !tbaa !3
  %11 = getelementptr inbounds nuw %struct.view_t, ptr %10, i32 0, i32 4
  %12 = getelementptr inbounds nuw %struct.anon, ptr %11, i32 0, i32 2
  %13 = getelementptr inbounds nuw %struct.anon.4, ptr %12, i32 0, i32 2
  %14 = load ptr, ptr %13, align 8, !tbaa !26
  %15 = load ptr, ptr %2, align 8, !tbaa !3
  %16 = call ptr @lv_obj_add_event_cb(ptr noundef %14, ptr noundef @ctrl_pad_btn_remove_event_handler, i32 noundef 10, ptr noundef %15)
  ret void
}

; Function Attrs: nounwind uwtable
define void @ctrl_pad_attach(ptr noundef %0) #0 {
  %2 = alloca ptr, align 8
  store ptr %0, ptr %2, align 8, !tbaa !3
  %3 = load ptr, ptr %2, align 8, !tbaa !3
  call void @ctrl_pad_btn_event_attach(ptr noundef %3)
  %4 = load ptr, ptr %2, align 8, !tbaa !3
  call void @flex_loader_attach(ptr noundef %4)
  %5 = load ptr, ptr %2, align 8, !tbaa !3
  %6 = getelementptr inbounds nuw %struct.view_t, ptr %5, i32 0, i32 4
  %7 = getelementptr inbounds nuw %struct.anon, ptr %6, i32 0, i32 1
  %8 = getelementptr inbounds nuw %struct.anon.0, ptr %7, i32 0, i32 3
  %9 = getelementptr inbounds nuw %struct.anon.3, ptr %8, i32 0, i32 2
  %10 = load ptr, ptr %9, align 8, !tbaa !7
  %11 = load ptr, ptr %2, align 8, !tbaa !3
  %12 = call ptr @lv_obj_add_event_cb(ptr noundef %10, ptr noundef @ctrl_pad_spinbox_event_handler, i32 noundef 35, ptr noundef %11)
  %13 = load ptr, ptr %2, align 8, !tbaa !3
  %14 = getelementptr inbounds nuw %struct.view_t, ptr %13, i32 0, i32 4
  %15 = getelementptr inbounds nuw %struct.anon, ptr %14, i32 0, i32 1
  %16 = getelementptr inbounds nuw %struct.anon.0, ptr %15, i32 0, i32 3
  %17 = getelementptr inbounds nuw %struct.anon.3, ptr %16, i32 0, i32 3
  %18 = load ptr, ptr %17, align 8, !tbaa !16
  %19 = load ptr, ptr %2, align 8, !tbaa !3
  %20 = call ptr @lv_obj_add_event_cb(ptr noundef %18, ptr noundef @ctrl_pad_spinbox_event_handler, i32 noundef 35, ptr noundef %19)
  %21 = load ptr, ptr %2, align 8, !tbaa !3
  %22 = getelementptr inbounds nuw %struct.view_t, ptr %21, i32 0, i32 4
  %23 = getelementptr inbounds nuw %struct.anon, ptr %22, i32 0, i32 1
  %24 = getelementptr inbounds nuw %struct.anon.0, ptr %23, i32 0, i32 3
  %25 = getelementptr inbounds nuw %struct.anon.3, ptr %24, i32 0, i32 10
  %26 = load ptr, ptr %25, align 8, !tbaa !17
  %27 = load ptr, ptr %2, align 8, !tbaa !3
  %28 = call ptr @lv_obj_add_event_cb(ptr noundef %26, ptr noundef @ctrl_pad_spinbox_event_handler, i32 noundef 35, ptr noundef %27)
  %29 = load ptr, ptr %2, align 8, !tbaa !3
  %30 = getelementptr inbounds nuw %struct.view_t, ptr %29, i32 0, i32 4
  %31 = getelementptr inbounds nuw %struct.anon, ptr %30, i32 0, i32 1
  %32 = getelementptr inbounds nuw %struct.anon.0, ptr %31, i32 0, i32 3
  %33 = getelementptr inbounds nuw %struct.anon.3, ptr %32, i32 0, i32 11
  %34 = load ptr, ptr %33, align 8, !tbaa !18
  %35 = load ptr, ptr %2, align 8, !tbaa !3
  %36 = call ptr @lv_obj_add_event_cb(ptr noundef %34, ptr noundef @ctrl_pad_spinbox_event_handler, i32 noundef 35, ptr noundef %35)
  %37 = load ptr, ptr %2, align 8, !tbaa !3
  %38 = getelementptr inbounds nuw %struct.view_t, ptr %37, i32 0, i32 4
  %39 = getelementptr inbounds nuw %struct.anon, ptr %38, i32 0, i32 1
  %40 = getelementptr inbounds nuw %struct.anon.0, ptr %39, i32 0, i32 3
  %41 = getelementptr inbounds nuw %struct.anon.3, ptr %40, i32 0, i32 12
  %42 = load ptr, ptr %41, align 8, !tbaa !19
  %43 = load ptr, ptr %2, align 8, !tbaa !3
  %44 = call ptr @lv_obj_add_event_cb(ptr noundef %42, ptr noundef @ctrl_pad_spinbox_event_handler, i32 noundef 35, ptr noundef %43)
  %45 = load ptr, ptr %2, align 8, !tbaa !3
  %46 = getelementptr inbounds nuw %struct.view_t, ptr %45, i32 0, i32 4
  %47 = getelementptr inbounds nuw %struct.anon, ptr %46, i32 0, i32 1
  %48 = getelementptr inbounds nuw %struct.anon.0, ptr %47, i32 0, i32 3
  %49 = getelementptr inbounds nuw %struct.anon.3, ptr %48, i32 0, i32 13
  %50 = load ptr, ptr %49, align 8, !tbaa !20
  %51 = load ptr, ptr %2, align 8, !tbaa !3
  %52 = call ptr @lv_obj_add_event_cb(ptr noundef %50, ptr noundef @ctrl_pad_spinbox_event_handler, i32 noundef 35, ptr noundef %51)
  %53 = load ptr, ptr %2, align 8, !tbaa !3
  %54 = getelementptr inbounds nuw %struct.view_t, ptr %53, i32 0, i32 4
  %55 = getelementptr inbounds nuw %struct.anon, ptr %54, i32 0, i32 1
  %56 = getelementptr inbounds nuw %struct.anon.0, ptr %55, i32 0, i32 3
  %57 = getelementptr inbounds nuw %struct.anon.3, ptr %56, i32 0, i32 14
  %58 = load ptr, ptr %57, align 8, !tbaa !21
  %59 = load ptr, ptr %2, align 8, !tbaa !3
  %60 = call ptr @lv_obj_add_event_cb(ptr noundef %58, ptr noundef @ctrl_pad_spinbox_event_handler, i32 noundef 35, ptr noundef %59)
  %61 = load ptr, ptr %2, align 8, !tbaa !3
  %62 = getelementptr inbounds nuw %struct.view_t, ptr %61, i32 0, i32 4
  %63 = getelementptr inbounds nuw %struct.anon, ptr %62, i32 0, i32 1
  %64 = getelementptr inbounds nuw %struct.anon.0, ptr %63, i32 0, i32 3
  %65 = getelementptr inbounds nuw %struct.anon.3, ptr %64, i32 0, i32 15
  %66 = load ptr, ptr %65, align 8, !tbaa !22
  %67 = load ptr, ptr %2, align 8, !tbaa !3
  %68 = call ptr @lv_obj_add_event_cb(ptr noundef %66, ptr noundef @ctrl_pad_spinbox_event_handler, i32 noundef 35, ptr noundef %67)
  %69 = load ptr, ptr %2, align 8, !tbaa !3
  %70 = getelementptr inbounds nuw %struct.view_t, ptr %69, i32 0, i32 4
  %71 = getelementptr inbounds nuw %struct.anon, ptr %70, i32 0, i32 1
  %72 = getelementptr inbounds nuw %struct.anon.0, ptr %71, i32 0, i32 3
  %73 = getelementptr inbounds nuw %struct.anon.3, ptr %72, i32 0, i32 16
  %74 = load ptr, ptr %73, align 8, !tbaa !23
  %75 = load ptr, ptr %2, align 8, !tbaa !3
  %76 = call ptr @lv_obj_add_event_cb(ptr noundef %74, ptr noundef @ctrl_pad_spinbox_event_handler, i32 noundef 35, ptr noundef %75)
  %77 = load ptr, ptr %2, align 8, !tbaa !3
  %78 = getelementptr inbounds nuw %struct.view_t, ptr %77, i32 0, i32 4
  %79 = getelementptr inbounds nuw %struct.anon, ptr %78, i32 0, i32 1
  %80 = getelementptr inbounds nuw %struct.anon.0, ptr %79, i32 0, i32 1
  %81 = getelementptr inbounds nuw %struct.anon.1, ptr %80, i32 0, i32 2
  %82 = load ptr, ptr %81, align 8, !tbaa !24
  %83 = load ptr, ptr %2, align 8, !tbaa !3
  %84 = call ptr @lv_obj_add_event_cb(ptr noundef %82, ptr noundef @ctrl_pad_checkbox_event_handler, i32 noundef 35, ptr noundef %83)
  ret void
}