; Function Attrs: nounwind uwtable
define void @ctrl_pad_attach(ptr noundef %0) local_unnamed_addr #0 {
  %2 = getelementptr inbounds nuw i8, ptr %0, i64 264
  %3 = load ptr, ptr %2, align 8, !tbaa !3
  %4 = tail call ptr @lv_obj_add_event_cb(ptr noundef %3, ptr noundef nonnull @ctrl_pad_btn_add_event_handler, i32 noundef 10, ptr noundef %0) #2
  %5 = getelementptr inbounds nuw i8, ptr %0, i64 272
  %6 = load ptr, ptr %5, align 8, !tbaa !15
  %7 = tail call ptr @lv_obj_add_event_cb(ptr noundef %6, ptr noundef nonnull @ctrl_pad_btn_remove_event_handler, i32 noundef 10, ptr noundef %0) #2
  tail call void @flex_loader_attach(ptr noundef %0) #2
  %8 = getelementptr inbounds nuw i8, ptr %0, i64 136
  %9 = load ptr, ptr %8, align 8, !tbaa !16
  %10 = tail call ptr @lv_obj_add_event_cb(ptr noundef %9, ptr noundef nonnull @ctrl_pad_spinbox_event_handler, i32 noundef 35, ptr noundef %0) #2
  %11 = getelementptr inbounds nuw i8, ptr %0, i64 144
  %12 = load ptr, ptr %11, align 8, !tbaa !17
  %13 = tail call ptr @lv_obj_add_event_cb(ptr noundef %12, ptr noundef nonnull @ctrl_pad_spinbox_event_handler, i32 noundef 35, ptr noundef %0) #2
  %14 = getelementptr inbounds nuw i8, ptr %0, i64 200
  %15 = load ptr, ptr %14, align 8, !tbaa !18
  %16 = tail call ptr @lv_obj_add_event_cb(ptr noundef %15, ptr noundef nonnull @ctrl_pad_spinbox_event_handler, i32 noundef 35, ptr noundef %0) #2
  %17 = getelementptr inbounds nuw i8, ptr %0, i64 208
  %18 = load ptr, ptr %17, align 8, !tbaa !19
  %19 = tail call ptr @lv_obj_add_event_cb(ptr noundef %18, ptr noundef nonnull @ctrl_pad_spinbox_event_handler, i32 noundef 35, ptr noundef %0) #2
  %20 = getelementptr inbounds nuw i8, ptr %0, i64 216
  %21 = load ptr, ptr %20, align 8, !tbaa !20
  %22 = tail call ptr @lv_obj_add_event_cb(ptr noundef %21, ptr noundef nonnull @ctrl_pad_spinbox_event_handler, i32 noundef 35, ptr noundef %0) #2
  %23 = getelementptr inbounds nuw i8, ptr %0, i64 224
  %24 = load ptr, ptr %23, align 8, !tbaa !21
  %25 = tail call ptr @lv_obj_add_event_cb(ptr noundef %24, ptr noundef nonnull @ctrl_pad_spinbox_event_handler, i32 noundef 35, ptr noundef %0) #2
  %26 = getelementptr inbounds nuw i8, ptr %0, i64 232
  %27 = load ptr, ptr %26, align 8, !tbaa !22
  %28 = tail call ptr @lv_obj_add_event_cb(ptr noundef %27, ptr noundef nonnull @ctrl_pad_spinbox_event_handler, i32 noundef 35, ptr noundef %0) #2
  %29 = getelementptr inbounds nuw i8, ptr %0, i64 240
  %30 = load ptr, ptr %29, align 8, !tbaa !23
  %31 = tail call ptr @lv_obj_add_event_cb(ptr noundef %30, ptr noundef nonnull @ctrl_pad_spinbox_event_handler, i32 noundef 35, ptr noundef %0) #2
  %32 = getelementptr inbounds nuw i8, ptr %0, i64 248
  %33 = load ptr, ptr %32, align 8, !tbaa !24
  %34 = tail call ptr @lv_obj_add_event_cb(ptr noundef %33, ptr noundef nonnull @ctrl_pad_spinbox_event_handler, i32 noundef 35, ptr noundef %0) #2
  %35 = getelementptr inbounds nuw i8, ptr %0, i64 80
  %36 = load ptr, ptr %35, align 8, !tbaa !25
  %37 = tail call ptr @lv_obj_add_event_cb(ptr noundef %36, ptr noundef nonnull @ctrl_pad_checkbox_event_handler, i32 noundef 35, ptr noundef %0) #2
  ret void
}